; ModuleID = '35/2434.c'
source_filename = "35/2434.c"
target datalayout = "e-m:e-p270:32:32-p271:32:32-p272:64:64-i64:64-f80:128-n8:16:32:64-S128"
target triple = "x86_64-pc-linux-gnu"

@.str = private unnamed_addr constant [9 x i8] c"%d %c %d\00", align 1
@.str.1 = private unnamed_addr constant [3 x i8] c"%d\00", align 1
@.str.2 = private unnamed_addr constant [7 x i8] c"%d+%d\0A\00", align 1
@.str.3 = private unnamed_addr constant [4 x i8] c"No\0A\00", align 1

; Function Attrs: noinline nounwind uwtable
define dso_local i32 @main() #0 {
  %1 = alloca i32, align 4
  %2 = alloca [8 x [8 x i32]], align 16
  %3 = alloca i32, align 4
  %4 = alloca i32, align 4
  %5 = alloca i32, align 4
  %6 = alloca i32, align 4
  %7 = alloca i32, align 4
  %8 = alloca i32, align 4
  %9 = alloca i32, align 4
  %10 = alloca i32, align 4
  %11 = alloca i8, align 1
  store i32 0, i32* %1, align 4
  store i32 1, i32* %9, align 4
  store i32 1, i32* %10, align 4
  %12 = call i32 (i8*, ...) @__isoc99_scanf(i8* getelementptr inbounds ([9 x i8], [9 x i8]* @.str, i64 0, i64 0), i32* %6, i8* %11, i32* %5)
  store i32 0, i32* %4, align 4
  br label %13

13:                                               ; preds = %36, %0
  %14 = load i32, i32* %4, align 4
  %15 = load i32, i32* %6, align 4
  %16 = sub nsw i32 %15, 1
  %17 = icmp sle i32 %14, %16
  br i1 %17, label %18, label %39

18:                                               ; preds = %13
  store i32 0, i32* %3, align 4
  br label %19

19:                                               ; preds = %32, %18
  %20 = load i32, i32* %3, align 4
  %21 = load i32, i32* %5, align 4
  %22 = sub nsw i32 %21, 1
  %23 = icmp sle i32 %20, %22
  br i1 %23, label %24, label %35

24:                                               ; preds = %19
  %25 = load i32, i32* %3, align 4
  %26 = sext i32 %25 to i64
  %27 = getelementptr inbounds [8 x [8 x i32]], [8 x [8 x i32]]* %2, i64 0, i64 %26
  %28 = load i32, i32* %4, align 4
  %29 = sext i32 %28 to i64
  %30 = getelementptr inbounds [8 x i32], [8 x i32]* %27, i64 0, i64 %29
  %31 = call i32 (i8*, ...) @__isoc99_scanf(i8* getelementptr inbounds ([3 x i8], [3 x i8]* @.str.1, i64 0, i64 0), i32* %30)
  br label %32

32:                                               ; preds = %24
  %33 = load i32, i32* %3, align 4
  %34 = add nsw i32 %33, 1
  store i32 %34, i32* %3, align 4
  br label %19

35:                                               ; preds = %19
  br label %36

36:                                               ; preds = %35
  %37 = load i32, i32* %4, align 4
  %38 = add nsw i32 %37, 1
  store i32 %38, i32* %4, align 4
  br label %13

39:                                               ; preds = %13
  store i32 0, i32* %4, align 4
  br label %40

40:                                               ; preds = %127, %39
  %41 = load i32, i32* %4, align 4
  %42 = load i32, i32* %6, align 4
  %43 = sub nsw i32 %42, 1
  %44 = icmp sle i32 %41, %43
  br i1 %44, label %45, label %130

45:                                               ; preds = %40
  store i32 0, i32* %3, align 4
  br label %46

46:                                               ; preds = %116, %45
  %47 = load i32, i32* %3, align 4
  %48 = load i32, i32* %5, align 4
  %49 = sub nsw i32 %48, 1
  %50 = icmp sle i32 %47, %49
  br i1 %50, label %51, label %119

51:                                               ; preds = %46
  store i32 0, i32* %7, align 4
  br label %52

52:                                               ; preds = %75, %51
  %53 = load i32, i32* %7, align 4
  %54 = load i32, i32* %5, align 4
  %55 = sub nsw i32 %54, 1
  %56 = icmp sle i32 %53, %55
  br i1 %56, label %57, label %78

57:                                               ; preds = %52
  store i32 1, i32* %9, align 4
  %58 = load i32, i32* %7, align 4
  %59 = sext i32 %58 to i64
  %60 = getelementptr inbounds [8 x [8 x i32]], [8 x [8 x i32]]* %2, i64 0, i64 %59
  %61 = load i32, i32* %4, align 4
  %62 = sext i32 %61 to i64
  %63 = getelementptr inbounds [8 x i32], [8 x i32]* %60, i64 0, i64 %62
  %64 = load i32, i32* %63, align 4
  %65 = load i32, i32* %3, align 4
  %66 = sext i32 %65 to i64
  %67 = getelementptr inbounds [8 x [8 x i32]], [8 x [8 x i32]]* %2, i64 0, i64 %66
  %68 = load i32, i32* %4, align 4
  %69 = sext i32 %68 to i64
  %70 = getelementptr inbounds [8 x i32], [8 x i32]* %67, i64 0, i64 %69
  %71 = load i32, i32* %70, align 4
  %72 = icmp sgt i32 %64, %71
  br i1 %72, label %73, label %74

73:                                               ; preds = %57
  store i32 0, i32* %9, align 4
  br label %78

74:                                               ; preds = %57
  br label %75

75:                                               ; preds = %74
  %76 = load i32, i32* %7, align 4
  %77 = add nsw i32 %76, 1
  store i32 %77, i32* %7, align 4
  br label %52

78:                                               ; preds = %73, %52
  store i32 0, i32* %8, align 4
  br label %79

79:                                               ; preds = %102, %78
  %80 = load i32, i32* %8, align 4
  %81 = load i32, i32* %6, align 4
  %82 = sub nsw i32 %81, 1
  %83 = icmp sle i32 %80, %82
  br i1 %83, label %84, label %105

84:                                               ; preds = %79
  store i32 1, i32* %10, align 4
  %85 = load i32, i32* %3, align 4
  %86 = sext i32 %85 to i64
  %87 = getelementptr inbounds [8 x [8 x i32]], [8 x [8 x i32]]* %2, i64 0, i64 %86
  %88 = load i32, i32* %8, align 4
  %89 = sext i32 %88 to i64
  %90 = getelementptr inbounds [8 x i32], [8 x i32]* %87, i64 0, i64 %89
  %91 = load i32, i32* %90, align 4
  %92 = load i32, i32* %3, align 4
  %93 = sext i32 %92 to i64
  %94 = getelementptr inbounds [8 x [8 x i32]], [8 x [8 x i32]]* %2, i64 0, i64 %93
  %95 = load i32, i32* %4, align 4
  %96 = sext i32 %95 to i64
  %97 = getelementptr inbounds [8 x i32], [8 x i32]* %94, i64 0, i64 %96
  %98 = load i32, i32* %97, align 4
  %99 = icmp slt i32 %91, %98
  br i1 %99, label %100, label %101

100:                                              ; preds = %84
  store i32 0, i32* %10, align 4
  br label %105

101:                                              ; preds = %84
  br label %102

102:                                              ; preds = %101
  %103 = load i32, i32* %8, align 4
  %104 = add nsw i32 %103, 1
  store i32 %104, i32* %8, align 4
  br label %79

105:                                              ; preds = %100, %79
  %106 = load i32, i32* %9, align 4
  %107 = icmp eq i32 %106, 1
  br i1 %107, label %108, label %115

108:                                              ; preds = %105
  %109 = load i32, i32* %10, align 4
  %110 = icmp eq i32 %109, 1
  br i1 %110, label %111, label %115

111:                                              ; preds = %108
  %112 = load i32, i32* %4, align 4
  %113 = load i32, i32* %3, align 4
  %114 = call i32 (i8*, ...) @printf(i8* getelementptr inbounds ([7 x i8], [7 x i8]* @.str.2, i64 0, i64 0), i32 %112, i32 %113)
  br label %119

115:                                              ; preds = %108, %105
  br label %116

116:                                              ; preds = %115
  %117 = load i32, i32* %3, align 4
  %118 = add nsw i32 %117, 1
  store i32 %118, i32* %3, align 4
  br label %46

119:                                              ; preds = %111, %46
  %120 = load i32, i32* %9, align 4
  %121 = icmp eq i32 %120, 1
  br i1 %121, label %122, label %126

122:                                              ; preds = %119
  %123 = load i32, i32* %10, align 4
  %124 = icmp eq i32 %123, 1
  br i1 %124, label %125, label %126

125:                                              ; preds = %122
  br label %130

126:                                              ; preds = %122, %119
  br label %127

127:                                              ; preds = %126
  %128 = load i32, i32* %4, align 4
  %129 = add nsw i32 %128, 1
  store i32 %129, i32* %4, align 4
  br label %40

130:                                              ; preds = %125, %40
  %131 = load i32, i32* %9, align 4
  %132 = icmp eq i32 %131, 0
  br i1 %132, label %136, label %133

133:                                              ; preds = %130
  %134 = load i32, i32* %10, align 4
  %135 = icmp eq i32 %134, 0
  br i1 %135, label %136, label %138

136:                                              ; preds = %133, %130
  %137 = call i32 (i8*, ...) @printf(i8* getelementptr inbounds ([4 x i8], [4 x i8]* @.str.3, i64 0, i64 0))
  br label %138

138:                                              ; preds = %136, %133
  ret i32 0
}

declare dso_local i32 @__isoc99_scanf(i8*, ...) #1

declare dso_local i32 @printf(i8*, ...) #1


!llvm.module.flags = !{!0}
!llvm.ident = !{!1}

!0 = !{i32 1, !"wchar_size", i32 4}
!1 = !{!"clang version 10.0.0-4ubuntu1 "}
